target datalayout = "e-m:e-p270:32:32-p271:32:32-p272:64:64-i64:64-i128:128-f80:128-n8:16:32:64-S128"
target triple = "x86_64-pc-linux-gnu"

%struct.cpool = type { %struct.Curl_hash, i64, i64, i64, %struct.curltime, %struct.Curl_llist, ptr, ptr, ptr, ptr, i8 }
%struct.Curl_hash = type { ptr, ptr, ptr, ptr, i64, i64 }
%struct.curltime = type { i64, i32 }
%struct.Curl_llist = type { ptr, ptr, ptr, i64 }
%struct.Curl_share = type { i32, i32, i32, ptr, ptr, ptr, %struct.cpool, %struct.Curl_hash, ptr, ptr, ptr, i64, i64 }
%struct.Curl_multi = type { i32, i32, i32, %struct.Curl_llist, %struct.Curl_llist, %struct.Curl_llist, %struct.Curl_llist, i64, ptr, ptr, ptr, ptr, %struct.Curl_hash, ptr, ptr, i64, ptr, i64, ptr, i64, %struct.Curl_hash, %struct.Curl_hash, %struct.cpool, i64, i64, i64, ptr, ptr, i64, %struct.curltime, [2 x i32], i32, i32, i8, i8 }

; Function Attrs: nounwind uwtable
define dso_local void @Curl_cpool_multi_perform(ptr noundef %0) #0 {
  %2 = alloca ptr, align 8
  store ptr %0, ptr %2, align 8, !tbaa !10
  br label %3

3:                                                ; preds = %1
  %4 = load ptr, ptr %2, align 8, !tbaa !10
  %5 = getelementptr inbounds nuw %struct.Curl_multi, ptr %4, i32 0, i32 22
  %6 = icmp ne ptr %5, null
  br i1 %6, label %7, label %37

7:                                                ; preds = %3
  %8 = load ptr, ptr %2, align 8, !tbaa !10
  %9 = getelementptr inbounds nuw %struct.Curl_multi, ptr %8, i32 0, i32 22
  %10 = getelementptr inbounds nuw %struct.cpool, ptr %9, i32 0, i32 8
  %11 = load ptr, ptr %10, align 8, !tbaa !156
  %12 = icmp ne ptr %11, null
  br i1 %12, label %13, label %28

13:                                               ; preds = %7
  %14 = load ptr, ptr %2, align 8, !tbaa !10
  %15 = getelementptr inbounds nuw %struct.Curl_multi, ptr %14, i32 0, i32 22
  %16 = getelementptr inbounds nuw %struct.cpool, ptr %15, i32 0, i32 8
  %17 = load ptr, ptr %16, align 8, !tbaa !156
  %18 = getelementptr inbounds nuw %struct.Curl_share, ptr %17, i32 0, i32 1
  %19 = load i32, ptr %18, align 4, !tbaa !91
  %20 = and i32 %19, 32
  %21 = icmp ne i32 %20, 0
  br i1 %21, label %22, label %28

22:                                               ; preds = %13
  %23 = load ptr, ptr %2, align 8, !tbaa !10
  %24 = getelementptr inbounds nuw %struct.Curl_multi, ptr %23, i32 0, i32 22
  %25 = getelementptr inbounds nuw %struct.cpool, ptr %24, i32 0, i32 6
  %26 = load ptr, ptr %25, align 8, !tbaa !157
  %27 = call i32 @Curl_share_lock(ptr noundef %26, i32 noundef 5, i32 noundef 2)
  br label %28

28:                                               ; preds = %22, %13, %7
  br label %29

29:                                               ; preds = %28
  br label %30

30:                                               ; preds = %29
  %31 = load ptr, ptr %2, align 8, !tbaa !10
  %32 = getelementptr inbounds nuw %struct.Curl_multi, ptr %31, i32 0, i32 22
  %33 = getelementptr inbounds nuw %struct.cpool, ptr %32, i32 0, i32 10
  %34 = load i8, ptr %33, align 8
  %35 = and i8 %34, -2
  %36 = or i8 %35, 1
  store i8 %36, ptr %33, align 8
  br label %37

37:                                               ; preds = %30, %3
  br label %38

38:                                               ; preds = %37
  %39 = load ptr, ptr %2, align 8, !tbaa !10
  %40 = getelementptr inbounds nuw %struct.Curl_multi, ptr %39, i32 0, i32 22
  call void @cpool_perform(ptr noundef %40)
  br label %41

41:                                               ; preds = %38
  %42 = load ptr, ptr %2, align 8, !tbaa !10
  %43 = getelementptr inbounds nuw %struct.Curl_multi, ptr %42, i32 0, i32 22
  %44 = icmp ne ptr %43, null
  br i1 %44, label %45, label %75

45:                                               ; preds = %41
  br label %46

46:                                               ; preds = %45
  br label %47

47:                                               ; preds = %46
  %48 = load ptr, ptr %2, align 8, !tbaa !10
  %49 = getelementptr inbounds nuw %struct.Curl_multi, ptr %48, i32 0, i32 22
  %50 = getelementptr inbounds nuw %struct.cpool, ptr %49, i32 0, i32 10
  %51 = load i8, ptr %50, align 8
  %52 = and i8 %51, -2
  %53 = or i8 %52, 0
  store i8 %53, ptr %50, align 8
  %54 = load ptr, ptr %2, align 8, !tbaa !10
  %55 = getelementptr inbounds nuw %struct.Curl_multi, ptr %54, i32 0, i32 22
  %56 = getelementptr inbounds nuw %struct.cpool, ptr %55, i32 0, i32 8
  %57 = load ptr, ptr %56, align 8, !tbaa !156
  %58 = icmp ne ptr %57, null
  br i1 %58, label %59, label %74

59:                                               ; preds = %47
  %60 = load ptr, ptr %2, align 8, !tbaa !10
  %61 = getelementptr inbounds nuw %struct.Curl_multi, ptr %60, i32 0, i32 22
  %62 = getelementptr inbounds nuw %struct.cpool, ptr %61, i32 0, i32 8
  %63 = load ptr, ptr %62, align 8, !tbaa !156
  %64 = getelementptr inbounds nuw %struct.Curl_share, ptr %63, i32 0, i32 1
  %65 = load i32, ptr %64, align 4, !tbaa !91
  %66 = and i32 %65, 32
  %67 = icmp ne i32 %66, 0
  br i1 %67, label %68, label %74

68:                                               ; preds = %59
  %69 = load ptr, ptr %2, align 8, !tbaa !10
  %70 = getelementptr inbounds nuw %struct.Curl_multi, ptr %69, i32 0, i32 22
  %71 = getelementptr inbounds nuw %struct.cpool, ptr %70, i32 0, i32 6
  %72 = load ptr, ptr %71, align 8, !tbaa !157
  %73 = call i32 @Curl_share_unlock(ptr noundef %72, i32 noundef 5)
  br label %74

74:                                               ; preds = %68, %59, %47
  br label %75

75:                                               ; preds = %74, %41
  br label %76

76:                                               ; preds = %75
  ret void
}