; Function Attrs: nounwind uwtable
define dso_local void @Curl_cpool_multi_perform(ptr noundef %0) local_unnamed_addr #0 {
  %2 = getelementptr inbounds nuw i8, ptr %0, i64 384
  %3 = getelementptr inbounds nuw i8, ptr %0, i64 520
  %4 = load ptr, ptr %3, align 8, !tbaa !152
  %.not = icmp eq ptr %4, null
  br i1 %.not, label %13, label %5

5:                                                ; preds = %1
  %6 = getelementptr inbounds nuw i8, ptr %4, i64 4
  %7 = load i32, ptr %6, align 4, !tbaa !90
  %8 = and i32 %7, 32
  %.not12 = icmp eq i32 %8, 0
  br i1 %.not12, label %13, label %9

9:                                                ; preds = %5
  %10 = getelementptr inbounds nuw i8, ptr %0, i64 504
  %11 = load ptr, ptr %10, align 8, !tbaa !153
  %12 = tail call i32 @Curl_share_lock(ptr noundef %11, i32 noundef 5, i32 noundef 2) #7
  br label %13

13:                                               ; preds = %9, %5, %1
  %14 = getelementptr inbounds nuw i8, ptr %0, i64 536
  %15 = load i8, ptr %14, align 8
  %16 = or i8 %15, 1
  store i8 %16, ptr %14, align 8
  tail call fastcc void @cpool_perform(ptr noundef nonnull %2)
  %17 = load i8, ptr %14, align 8
  %18 = and i8 %17, -2
  store i8 %18, ptr %14, align 8
  %19 = load ptr, ptr %3, align 8, !tbaa !152
  %.not13 = icmp eq ptr %19, null
  br i1 %.not13, label %28, label %20

20:                                               ; preds = %13
  %21 = getelementptr inbounds nuw i8, ptr %19, i64 4
  %22 = load i32, ptr %21, align 4, !tbaa !90
  %23 = and i32 %22, 32
  %.not14 = icmp eq i32 %23, 0
  br i1 %.not14, label %28, label %24

24:                                               ; preds = %20
  %25 = getelementptr inbounds nuw i8, ptr %0, i64 504
  %26 = load ptr, ptr %25, align 8, !tbaa !153
  %27 = tail call i32 @Curl_share_unlock(ptr noundef %26, i32 noundef 5) #7
  br label %28

28:                                               ; preds = %24, %20, %13
  ret void
}